target datalayout = "e-m:e-p270:32:32-p271:32:32-p272:64:64-i64:64-i128:128-f80:128-n8:16:32:64-S128"
target triple = "x86_64-pc-linux-gnu"

; Function Attrs: nounwind uwtable
define hidden void @phpdbg_free_wrapper(ptr noundef %0) #0 {
  %2 = alloca ptr, align 8
  %3 = alloca ptr, align 8
  store ptr %0, ptr %2, align 8, !tbaa !118
  call void @llvm.lifetime.start.p0(i64 8, ptr %3) #22
  %4 = call ptr @zend_mm_get_heap()
  store ptr %4, ptr %3, align 8, !tbaa !166
  %5 = load ptr, ptr %3, align 8, !tbaa !166
  %6 = load ptr, ptr %2, align 8, !tbaa !118
  %7 = icmp eq ptr %5, %6
  %8 = xor i1 %7, true
  %9 = xor i1 %8, true
  %10 = zext i1 %9 to i32
  %11 = sext i32 %10 to i64
  %12 = call i64 @llvm.expect.i64(i64 %11, i64 0)
  %13 = icmp ne i64 %12, 0
  br i1 %13, label %14, label %15

14:                                               ; preds = %1
  br label %19

15:                                               ; preds = %1
  %16 = load ptr, ptr %2, align 8, !tbaa !118
  call void @phpdbg_watch_efree(ptr noundef %16)
  %17 = load ptr, ptr %3, align 8, !tbaa !166
  %18 = load ptr, ptr %2, align 8, !tbaa !118
  call void @_zend_mm_free(ptr noundef %17, ptr noundef %18)
  br label %19

19:                                               ; preds = %15, %14
  call void @llvm.lifetime.end.p0(i64 8, ptr %3) #22
  ret void
}