; Function Attrs: nounwind uwtable
define hidden void @phpdbg_free_wrapper(ptr noundef %0) #0 {
  %2 = tail call ptr @zend_mm_get_heap() #27
  %3 = icmp eq ptr %2, %0
  br i1 %3, label %5, label %4, !prof !92

4:                                                ; preds = %1
  tail call void @phpdbg_watch_efree(ptr noundef %0) #27
  tail call void @_zend_mm_free(ptr noundef %2, ptr noundef %0) #27
  br label %5

5:                                                ; preds = %1, %4
  ret void
}